; Function Attrs: mustprogress uwtable
define void @_ZN5arrow3ipc14IpcReadOptions8DefaultsEv(ptr dead_on_unwind noalias writable sret(%"struct.arrow::ipc::IpcReadOptions") align 8 initializes((0, 80)) %0) local_unnamed_addr #0 align 2 personality ptr @__gxx_personality_v0 {
  tail call void @llvm.memset.p0.i64(ptr noundef nonnull align 8 dereferenceable(80) %0, i8 0, i64 80, i1 false)
  store i32 64, ptr %0, align 8, !tbaa !28
  %2 = getelementptr inbounds nuw i8, ptr %0, i64 8
  %3 = tail call noundef ptr @_ZN5arrow19default_memory_poolEv()
  store ptr %3, ptr %2, align 8, !tbaa !37
  %4 = getelementptr inbounds nuw i8, ptr %0, i64 16
  tail call void @llvm.memset.p0.i64(ptr noundef nonnull align 8 dereferenceable(24) %4, i8 0, i64 24, i1 false)
  %5 = getelementptr inbounds nuw i8, ptr %0, i64 40
  store i8 1, ptr %5, align 8, !tbaa !38
  %6 = getelementptr inbounds nuw i8, ptr %0, i64 41
  store i8 1, ptr %6, align 1, !tbaa !39
  %7 = getelementptr inbounds nuw i8, ptr %0, i64 48
  invoke void @_ZN5arrow2io12CacheOptions12LazyDefaultsEv(ptr dead_on_unwind nonnull writable sret(%"struct.arrow::io::CacheOptions") align 8 %7)
          to label %_ZN5arrow3ipc14IpcReadOptionsC2Ev.exit unwind label %8

8:                                                ; preds = %1
  %9 = landingpad { ptr, i32 }
          cleanup
  %10 = load ptr, ptr %4, align 8, !tbaa !40
  %.not.i.i.i.i = icmp eq ptr %10, null
  br i1 %.not.i.i.i.i, label %_ZNSt6vectorIiSaIiEED2Ev.exit.i, label %11

11:                                               ; preds = %8
  %12 = getelementptr inbounds nuw i8, ptr %0, i64 32
  %13 = load ptr, ptr %12, align 8, !tbaa !41
  %14 = ptrtoint ptr %13 to i64
  %15 = ptrtoint ptr %10 to i64
  %16 = sub i64 %14, %15
  tail call void @_ZdlPvm(ptr noundef nonnull %10, i64 noundef %16) #8
  br label %_ZNSt6vectorIiSaIiEED2Ev.exit.i

_ZNSt6vectorIiSaIiEED2Ev.exit.i:                  ; preds = %11, %8
  resume { ptr, i32 } %9

_ZN5arrow3ipc14IpcReadOptionsC2Ev.exit:           ; preds = %1
  ret void
}